target datalayout = "e-m:e-p270:32:32-p271:32:32-p272:64:64-i64:64-i128:128-f80:128-n8:16:32:64-S128"
target triple = "x86_64-pc-linux-gnu"

%struct.Dl_info = type { ptr, ptr, ptr, ptr }

@.str.9 = private unnamed_addr constant [6 x i8] c"/lib/\00", align 1
@.str.10 = private unnamed_addr constant [6 x i8] c"/bin/\00", align 1

; Function Attrs: nounwind uwtable
define internal ptr @findLastPathComponent(ptr noundef %0, ptr noundef %1) #0 {
  %3 = alloca ptr, align 8
  %4 = alloca ptr, align 8
  %5 = alloca ptr, align 8
  %6 = alloca ptr, align 8
  %7 = alloca i64, align 8
  store ptr %0, ptr %3, align 8
  store ptr %1, ptr %4, align 8
  %8 = load ptr, ptr %3, align 8
  store ptr %8, ptr %5, align 8
  store ptr null, ptr %6, align 8
  %9 = load ptr, ptr %4, align 8
  %10 = call i64 @strlen(ptr noundef %9) #7
  store i64 %10, ptr %7, align 8
  %11 = load ptr, ptr %5, align 8
  %12 = load ptr, ptr %4, align 8
  %13 = call ptr @strstr(ptr noundef %11, ptr noundef %12) #7
  store ptr %13, ptr %5, align 8
  br label %14

14:                                               ; preds = %17, %2
  %15 = load ptr, ptr %5, align 8
  %16 = icmp ne ptr %15, null
  br i1 %16, label %17, label %25

17:                                               ; preds = %14
  %18 = load ptr, ptr %5, align 8
  store ptr %18, ptr %6, align 8
  %19 = load i64, ptr %7, align 8
  %20 = load ptr, ptr %5, align 8
  %21 = getelementptr inbounds i8, ptr %20, i64 %19
  store ptr %21, ptr %5, align 8
  %22 = load ptr, ptr %5, align 8
  %23 = load ptr, ptr %4, align 8
  %24 = call ptr @strstr(ptr noundef %22, ptr noundef %23) #7
  store ptr %24, ptr %5, align 8
  br label %14, !llvm.loop !11

25:                                               ; preds = %14
  %26 = load ptr, ptr %6, align 8
  ret ptr %26
}

; Function Attrs: nounwind uwtable
define internal zeroext i8 @TruncatePath(ptr noundef %0, i8 noundef zeroext %1) #0 {
  %3 = alloca i8, align 1
  %4 = alloca ptr, align 8
  %5 = alloca i8, align 1
  %6 = alloca ptr, align 8
  store ptr %0, ptr %4, align 8
  store i8 %1, ptr %5, align 1
  %7 = load ptr, ptr %4, align 8
  %8 = load i8, ptr %5, align 1
  %9 = zext i8 %8 to i32
  %10 = icmp ne i32 %9, 0
  %11 = select i1 %10, ptr @.str.9, ptr @.str.10
  %12 = call ptr @findLastPathComponent(ptr noundef %7, ptr noundef %11)
  store ptr %12, ptr %6, align 8
  %13 = load ptr, ptr %6, align 8
  %14 = icmp ne ptr %13, null
  br i1 %14, label %15, label %17

15:                                               ; preds = %2
  %16 = load ptr, ptr %6, align 8
  store i8 0, ptr %16, align 1
  store i8 1, ptr %3, align 1
  br label %29

17:                                               ; preds = %2
  %18 = load ptr, ptr %4, align 8
  %19 = load i8, ptr %5, align 1
  %20 = zext i8 %19 to i32
  %21 = icmp ne i32 %20, 0
  %22 = select i1 %21, ptr @.str.10, ptr @.str.9
  %23 = call ptr @findLastPathComponent(ptr noundef %18, ptr noundef %22)
  store ptr %23, ptr %6, align 8
  %24 = load ptr, ptr %6, align 8
  %25 = icmp ne ptr %24, null
  br i1 %25, label %26, label %28

26:                                               ; preds = %17
  %27 = load ptr, ptr %6, align 8
  store i8 0, ptr %27, align 1
  store i8 1, ptr %3, align 1
  br label %29

28:                                               ; preds = %17
  store i8 0, ptr %3, align 1
  br label %29

29:                                               ; preds = %28, %26, %15
  %30 = load i8, ptr %3, align 1
  ret i8 %30
}

; Function Attrs: nounwind uwtable
define hidden zeroext i8 @GetApplicationHomeFromDll(ptr noundef %0, i32 noundef %1) #0 {
  %3 = alloca i8, align 1
  %4 = alloca ptr, align 8
  %5 = alloca i32, align 4
  %6 = alloca %struct.Dl_info, align 8
  %7 = alloca ptr, align 8
  store ptr %0, ptr %4, align 8
  store i32 %1, ptr %5, align 4
  %8 = call i32 @dladdr(ptr noundef @GetApplicationHomeFromDll, ptr noundef %6) #6
  %9 = icmp ne i32 %8, 0
  br i1 %9, label %10, label %22

10:                                               ; preds = %2
  %11 = getelementptr inbounds %struct.Dl_info, ptr %6, i32 0, i32 0
  %12 = load ptr, ptr %11, align 8
  %13 = load ptr, ptr %4, align 8
  %14 = call ptr @realpath(ptr noundef %12, ptr noundef %13) #6
  store ptr %14, ptr %7, align 8
  %15 = load ptr, ptr %7, align 8
  %16 = load ptr, ptr %4, align 8
  %17 = icmp eq ptr %15, %16
  br i1 %17, label %18, label %21

18:                                               ; preds = %10
  %19 = load ptr, ptr %4, align 8
  %20 = call zeroext i8 @TruncatePath(ptr noundef %19, i8 noundef zeroext 1)
  store i8 %20, ptr %3, align 1
  br label %23

21:                                               ; preds = %10
  br label %22

22:                                               ; preds = %21, %2
  store i8 0, ptr %3, align 1
  br label %23

23:                                               ; preds = %22, %18
  %24 = load i8, ptr %3, align 1
  ret i8 %24
}