; Function Attrs: nounwind uwtable
define hidden zeroext range(i8 0, 2) i8 @GetApplicationHomeFromDll(ptr noundef %0, i32 %1) #0 {
  %3 = alloca %struct.Dl_info, align 8
  %4 = call i32 @dladdr(ptr noundef nonnull @GetApplicationHomeFromDll, ptr noundef nonnull %3) #14
  %.not = icmp eq i32 %4, 0
  br i1 %.not, label %TruncatePath.exit, label %5

5:                                                ; preds = %2
  %6 = load ptr, ptr %3, align 8
  %7 = call ptr @realpath(ptr noundef %6, ptr noundef %0) #14
  %8 = icmp eq ptr %7, %0
  br i1 %8, label %9, label %TruncatePath.exit

9:                                                ; preds = %5
  %10 = call ptr @strstr(ptr noundef nonnull readonly dereferenceable(1) %0, ptr noundef nonnull readonly dereferenceable(1) @.str.9) #15
  %.not11.i.i = icmp eq ptr %10, null
  br i1 %.not11.i.i, label %13, label %.lr.ph.i.i

.lr.ph.i.i:                                       ; preds = %9, %.lr.ph.i.i
  %.012.i.i = phi ptr [ %12, %.lr.ph.i.i ], [ %10, %9 ]
  %11 = getelementptr inbounds i8, ptr %.012.i.i, i64 5
  %12 = call ptr @strstr(ptr noundef nonnull dereferenceable(1) %11, ptr noundef nonnull readonly dereferenceable(1) @.str.9) #15
  %.not.i.i = icmp eq ptr %12, null
  br i1 %.not.i.i, label %findLastPathComponent.exit17.thread.sink.split.i, label %.lr.ph.i.i, !llvm.loop !6

13:                                               ; preds = %9
  %14 = call ptr @strstr(ptr noundef nonnull readonly dereferenceable(1) %0, ptr noundef nonnull readonly dereferenceable(1) @.str.10) #15
  %.not11.i12.i = icmp eq ptr %14, null
  br i1 %.not11.i12.i, label %TruncatePath.exit, label %.lr.ph.i13.i

.lr.ph.i13.i:                                     ; preds = %13, %.lr.ph.i13.i
  %.012.i14.i = phi ptr [ %16, %.lr.ph.i13.i ], [ %14, %13 ]
  %15 = getelementptr inbounds i8, ptr %.012.i14.i, i64 5
  %16 = call ptr @strstr(ptr noundef nonnull dereferenceable(1) %15, ptr noundef nonnull readonly dereferenceable(1) @.str.10) #15
  %.not.i15.i = icmp eq ptr %16, null
  br i1 %.not.i15.i, label %findLastPathComponent.exit17.thread.sink.split.i, label %.lr.ph.i13.i, !llvm.loop !6

findLastPathComponent.exit17.thread.sink.split.i: ; preds = %.lr.ph.i.i, %.lr.ph.i13.i
  %.012.i14.lcssa.sink.i = phi ptr [ %.012.i14.i, %.lr.ph.i13.i ], [ %.012.i.i, %.lr.ph.i.i ]
  store i8 0, ptr %.012.i14.lcssa.sink.i, align 1
  br label %TruncatePath.exit

TruncatePath.exit:                                ; preds = %findLastPathComponent.exit17.thread.sink.split.i, %13, %2, %5
  %.0 = phi i8 [ 0, %5 ], [ 0, %2 ], [ 0, %13 ], [ 1, %findLastPathComponent.exit17.thread.sink.split.i ]
  ret i8 %.0
}